target datalayout = "e-m:e-p270:32:32-p271:32:32-p272:64:64-i64:64-i128:128-f80:128-n8:16:32:64-S128"
target triple = "x86_64-pc-linux-gnu"

%struct._xmlNode = type { ptr, i32, ptr, ptr, ptr, ptr, ptr, ptr, ptr, ptr, ptr, ptr, ptr, ptr, i16, i16 }

; Function Attrs: nounwind uwtable
define hidden zeroext i1 @php_dom_is_node_connected(ptr noundef %0) #0 {
  %2 = alloca i1, align 1
  %3 = alloca ptr, align 8
  store ptr %0, ptr %3, align 8
  %4 = load ptr, ptr %3, align 8
  %5 = icmp ne ptr %4, null
  call void @llvm.assume(i1 %5)
  br label %6

6:                                                ; preds = %21, %1
  %7 = load ptr, ptr %3, align 8
  %8 = getelementptr inbounds %struct._xmlNode, ptr %7, i32 0, i32 1
  %9 = load i32, ptr %8, align 8
  %10 = icmp eq i32 %9, 9
  br i1 %10, label %16, label %11

11:                                               ; preds = %6
  %12 = load ptr, ptr %3, align 8
  %13 = getelementptr inbounds %struct._xmlNode, ptr %12, i32 0, i32 1
  %14 = load i32, ptr %13, align 8
  %15 = icmp eq i32 %14, 13
  br i1 %15, label %16, label %17

16:                                               ; preds = %11, %6
  store i1 true, ptr %2, align 1
  br label %25

17:                                               ; preds = %11
  %18 = load ptr, ptr %3, align 8
  %19 = getelementptr inbounds %struct._xmlNode, ptr %18, i32 0, i32 5
  %20 = load ptr, ptr %19, align 8
  store ptr %20, ptr %3, align 8
  br label %21

21:                                               ; preds = %17
  %22 = load ptr, ptr %3, align 8
  %23 = icmp ne ptr %22, null
  br i1 %23, label %6, label %24

24:                                               ; preds = %21
  store i1 false, ptr %2, align 1
  br label %25

25:                                               ; preds = %24, %16
  %26 = load i1, ptr %2, align 1
  ret i1 %26
}