; Function Attrs: nofree norecurse nosync nounwind memory(read, inaccessiblemem: write) uwtable
define hidden noundef zeroext i1 @php_dom_is_node_connected(ptr noundef readonly %0) local_unnamed_addr #3 {
  %2 = icmp ne ptr %0, null
  tail call void @llvm.assume(i1 %2)
  br label %3

3:                                                ; preds = %6, %1
  %.0 = phi ptr [ %0, %1 ], [ %8, %6 ]
  %4 = getelementptr inbounds i8, ptr %.0, i64 8
  %5 = load i32, ptr %4, align 8
  switch i32 %5, label %6 [
    i32 9, label %9
    i32 13, label %9
  ]

6:                                                ; preds = %3
  %7 = getelementptr inbounds i8, ptr %.0, i64 40
  %8 = load ptr, ptr %7, align 8
  %.not = icmp eq ptr %8, null
  br i1 %.not, label %9, label %3

9:                                                ; preds = %6, %3, %3
  %.06 = phi i1 [ true, %3 ], [ true, %3 ], [ false, %6 ]
  ret i1 %.06
}